; Function Attrs: nounwind uwtable
define void @lv_arc_set_value(ptr noundef %0, i32 noundef %1) local_unnamed_addr #0 {
  %.not = icmp eq ptr %0, null
  br i1 %.not, label %.preheader, label %3

.preheader:                                       ; preds = %2, %.preheader
  br label %.preheader

3:                                                ; preds = %2
  %4 = getelementptr inbounds nuw i8, ptr %0, i64 84
  %5 = load i32, ptr %4, align 4, !tbaa !21
  %6 = icmp eq i32 %5, %1
  br i1 %6, label %15, label %7

7:                                                ; preds = %3
  %8 = getelementptr inbounds nuw i8, ptr %0, i64 92
  %9 = load i32, ptr %8, align 4, !tbaa !23
  %. = tail call i32 @llvm.smin.i32(i32 %1, i32 %9)
  %10 = getelementptr inbounds nuw i8, ptr %0, i64 88
  %11 = load i32, ptr %10, align 8, !tbaa !22
  %12 = tail call i32 @llvm.smax.i32(i32 %., i32 %11)
  %13 = icmp eq i32 %5, %12
  br i1 %13, label %15, label %14

14:                                               ; preds = %7
  store i32 %12, ptr %4, align 4, !tbaa !21
  tail call fastcc void @value_update(ptr noundef %0)
  br label %15

15:                                               ; preds = %14, %7, %3
  ret void
}